EXPORTS
    _Z12from_datasetP7_object @1
    _Z13tocppfromlistP7_object @2
    _Z14string_replaceRNSt7__cxx1112basic_stringIcSt11char_traitsIcESaIcEEES4_S4_ @3
    _Z14tocppfromtupleP7_object @4
    _Z14topyfromstructR8data_row @5
    _Z14topyfromvectorRSt6vectorI8data_rowSaIS0_EE @6
    _Z19get_num_from_stringNSt7__cxx1112basic_stringIcSt11char_traitsIcESaIcEEE @7
    _Z19prj_catalog_2stringNSt7__cxx1112basic_stringIcSt11char_traitsIcESaIcEEE @8
    _Z22prj_catalog_int2stringB5cxx11i @9
    _Z24combine_the_same_sectionRSt6vectorI8data_rowSaIS0_EE @10
    _Z4trimRNSt7__cxx1112basic_stringIcSt11char_traitsIcESaIcEEE @11
    _Z5isNumNSt7__cxx1112basic_stringIcSt11char_traitsIcESaIcEEE @12
    _Z6Bool2YB5cxx11b @13
    _Z7del_strRNSt7__cxx1112basic_stringIcSt11char_traitsIcESaIcEEE @14
    _ZN6dubzzz6Py2Cpp10CppBuilderISt5tupleIJNSt7__cxx1112basic_stringIcSt11char_traitsIcESaIcEEES8_S8_S8_S8_S8_S8_S8_bS8_S8_S8_iS8_S8_bS8_S8_iS8_EEEclEP7_object @15
    _ZN6dubzzz6Py2Cpp13_feedCppTupleISt5tupleIJNSt7__cxx1112basic_stringIcSt11char_traitsIcESaIcEEES8_S8_S8_S8_S8_S8_S8_bS8_S8_S8_iS8_S8_bS8_S8_iS8_EELj0ES8_JS8_S8_S8_S8_S8_S8_S8_bS8_S8_S8_iS8_S8_bS8_S8_iS8_EEEvRT_P7_object @16
    _ZN6dubzzz6Py2Cpp13_feedCppTupleISt5tupleIJNSt7__cxx1112basic_stringIcSt11char_traitsIcESaIcEEES8_S8_S8_S8_S8_S8_S8_bS8_S8_S8_iS8_S8_bS8_S8_iS8_EELj11ES8_JiS8_S8_bS8_S8_iS8_EEEvRT_P7_object @17
    _ZN6dubzzz6Py2Cpp13_feedCppTupleISt5tupleIJNSt7__cxx1112basic_stringIcSt11char_traitsIcESaIcEEES8_S8_S8_S8_S8_S8_S8_bS8_S8_S8_iS8_S8_bS8_S8_iS8_EELj14ES8_JbS8_S8_iS8_EEEvRT_P7_object @18
    _ZN6dubzzz6Py2Cpp13_feedCppTupleISt5tupleIJNSt7__cxx1112basic_stringIcSt11char_traitsIcESaIcEEES8_S8_S8_S8_S8_S8_S8_bS8_S8_S8_iS8_S8_bS8_S8_iS8_EELj17ES8_JiS8_EEEvRT_P7_object @19
    _ZN6dubzzz6Py2Cpp13_feedCppTupleISt5tupleIJNSt7__cxx1112basic_stringIcSt11char_traitsIcESaIcEEES8_S8_S8_S8_S8_S8_S8_bS8_S8_S8_iS8_S8_bS8_S8_iS8_EELj2ES8_JS8_S8_S8_S8_S8_bS8_S8_S8_iS8_S8_bS8_S8_iS8_EEEvRT_P7_object @20
    _ZN6dubzzz6Py2Cpp13_feedCppTupleISt5tupleIJNSt7__cxx1112basic_stringIcSt11char_traitsIcESaIcEEES8_S8_S8_S8_S8_S8_S8_bS8_S8_S8_iS8_S8_bS8_S8_iS8_EELj5ES8_JS8_S8_bS8_S8_S8_iS8_S8_bS8_S8_iS8_EEEvRT_P7_object @21
    _ZN6dubzzz6Py2Cpp13_feedCppTupleISt5tupleIJNSt7__cxx1112basic_stringIcSt11char_traitsIcESaIcEEES8_S8_S8_S8_S8_S8_S8_bS8_S8_S8_iS8_S8_bS8_S8_iS8_EELj7ES8_JbS8_S8_S8_iS8_S8_bS8_S8_iS8_EEEvRT_P7_object @22
    _ZN6dubzzz6Py2Cpp13_feedCppTupleISt5tupleIJNSt7__cxx1112basic_stringIcSt11char_traitsIcESaIcEEES8_S8_S8_S8_S8_S8_S8_bS8_S8_S8_iS8_S8_bS8_S8_iS8_EELj9ES8_JS8_S8_iS8_S8_bS8_S8_iS8_EEEvRT_P7_object @23
    _ZN8data_rowD1Ev @24
    _ZN8data_rowaSERKS_ @25
    _ZNSt11_Tuple_implILj0EJNSt7__cxx1112basic_stringIcSt11char_traitsIcESaIcEEES5_S5_S5_S5_S5_S5_S5_bS5_S5_S5_iS5_S5_bS5_S5_iS5_EED2Ev @26
    _ZNSt6vectorI8data_rowSaIS0_EE19_M_emplace_back_auxIJRKS0_EEEvDpOT_ @27
    _ZNSt6vectorI8data_rowSaIS0_EED1Ev @28
    _ZNSt6vectorISt5tupleIJNSt7__cxx1112basic_stringIcSt11char_traitsIcESaIcEEES6_S6_S6_S6_S6_S6_S6_bS6_S6_S6_iS6_S6_bS6_S6_iS6_EESaIS7_EED1Ev @29
    _ZStplIcSt11char_traitsIcESaIcEENSt7__cxx1112basic_stringIT_T0_T1_EEPKS5_RKS8_ @30
    _ZTISt11logic_error @31 DATA
    _ZTISt12length_error @32 DATA
    _ZTISt16invalid_argument @33 DATA
    _ZTISt9exception @34 DATA
    _ZTSSt11logic_error @35 DATA
    _ZTSSt12length_error @36 DATA
    _ZTSSt16invalid_argument @37 DATA
    _ZTSSt9exception @38 DATA
    _get_output_format @39
    combine_list @40
    combine_new_list @41
